target datalayout = "e-m:e-p270:32:32-p271:32:32-p272:64:64-i64:64-i128:128-f80:128-n8:16:32:64-S128"
target triple = "x86_64-pc-linux-gnu"

%class.QVariant = type { %"struct.QVariant::Private" }
%"struct.QVariant::Private" = type { %union.anon, i64 }
%union.anon = type { ptr, [16 x i8] }
%struct._bluetooth_device_tap_t = type { i32, i32, i8, i8, [6 x i8], i32, %union.anon.21 }
%union.anon.21 = type { ptr, [8 x i8] }
%struct._bluetooth_item_data_t = type { i32, i32, i32, i32 }
%struct._packet_info = type { ptr, ptr, i32, i32, %struct.nstime_t, %struct.nstime_t, %struct.nstime_t, i8, ptr, ptr, ptr, ptr, %struct._address, %struct._address, %struct._address, %struct._address, %struct._address, %struct._address, i32, ptr, i8, [3 x i8], %struct.anon.20, i32, i32, i32, i32, ptr, i8, ptr, ptr, i16, i16, i32, i32, i16, i32, i32, ptr, ptr, ptr, i8, i8, i16, i16, i16, i32, i16, i16, ptr, ptr, ptr, ptr, ptr, i32, i32 }
%struct.nstime_t = type { i64, i32 }
%struct._address = type { i32, i32, ptr, ptr }
%struct.anon.20 = type { i8, [3 x i8] }
%struct._frame_data = type <{ i32, i32, i32, i32, i32, [4 x i8], i64, ptr, ptr, ptr, i8, i16, [5 x i8], %struct.nstime_t, %struct.nstime_t, i32, i32 }>
%class.QMetaType = type { ptr }

; Function Attrs: mustprogress nounwind null_pointer_is_valid sspstrong uwtable
define linkonce_odr noundef ptr @_ZN9QtPrivate25qMetaTypeInterfaceForTypeIPvEEPKNS_18QMetaTypeInterfaceEv() #8 comdat {
  ret ptr @_ZN9QtPrivate25QMetaTypeInterfaceWrapperIPvE8metaTypeE
}

; Function Attrs: mustprogress null_pointer_is_valid sspstrong uwtable
define linkonce_odr ptr @_ZN9QMetaType8fromTypeIPvEES_v() #0 comdat align 2 {
  %1 = alloca %class.QMetaType, align 8
  %2 = call noundef ptr @_ZN9QtPrivate25qMetaTypeInterfaceForTypeIPvEEPKNS_18QMetaTypeInterfaceEv()
  call void @_ZN9QMetaTypeC2EPKN9QtPrivate18QMetaTypeInterfaceE(ptr noundef align 8 dereferenceable_or_null(8) %1, ptr noundef %2)
  %3 = getelementptr inbounds nuw %class.QMetaType, ptr %1, i32 0, i32 0
  %4 = load ptr, ptr %3, align 8
  ret ptr %4
}

; Function Attrs: mustprogress nounwind null_pointer_is_valid sspstrong uwtable
define linkonce_odr void @_ZN9QMetaTypeC2EPKN9QtPrivate18QMetaTypeInterfaceE(ptr noundef align 8 dereferenceable_or_null(8) %0, ptr noundef %1) unnamed_addr #8 comdat align 2 {
  %3 = alloca ptr, align 8
  %4 = alloca ptr, align 8
  store ptr %0, ptr %3, align 8
  store ptr %1, ptr %4, align 8
  %5 = load ptr, ptr %3, align 8
  %6 = getelementptr inbounds nuw %class.QMetaType, ptr %5, i32 0, i32 0
  %7 = load ptr, ptr %4, align 8
  store ptr %7, ptr %6, align 8
  ret void
}

; Function Attrs: inlinehint mustprogress null_pointer_is_valid sspstrong uwtable
define linkonce_odr void @_ZN8QVariant9fromValueIPvEENSt9enable_ifIXsr3stdE23is_copy_constructible_vIT_EES_E4typeERKS3_(ptr dead_on_unwind noalias writable sret(%class.QVariant) align 8 %0, ptr noundef align 8 dereferenceable(8) %1) #4 comdat align 2 {
  %3 = alloca ptr, align 8
  %4 = alloca ptr, align 8
  %5 = alloca %class.QMetaType, align 8
  store ptr %0, ptr %3, align 8
  store ptr %1, ptr %4, align 8
  %6 = call ptr @_ZN9QMetaType8fromTypeIPvEES_v()
  %7 = getelementptr inbounds nuw %class.QMetaType, ptr %5, i32 0, i32 0
  store ptr %6, ptr %7, align 8
  %8 = load ptr, ptr %4, align 8
  %9 = getelementptr inbounds nuw %class.QMetaType, ptr %5, i32 0, i32 0
  %10 = load ptr, ptr %9, align 8
  call void @_ZN8QVariantC1E9QMetaTypePKv(ptr noundef align 8 dereferenceable_or_null(32) %0, ptr %10, ptr noundef %8)
  ret void
}

; Function Attrs: inlinehint mustprogress null_pointer_is_valid sspstrong uwtable
define linkonce_odr ptr @_ZNK8QVariant7Private4typeEv(ptr noundef align 8 dereferenceable_or_null(32) %0) #4 comdat align 2 {
  %2 = alloca %class.QMetaType, align 8
  %3 = alloca ptr, align 8
  store ptr %0, ptr %3, align 8
  %4 = load ptr, ptr %3, align 8
  %5 = getelementptr inbounds nuw %"struct.QVariant::Private", ptr %4, i32 0, i32 1
  %6 = load i64, ptr %5, align 8
  %7 = lshr i64 %6, 2
  %8 = shl i64 %7, 2
  %9 = inttoptr i64 %8 to ptr
  call void @_ZN9QMetaTypeC2EPKN9QtPrivate18QMetaTypeInterfaceE(ptr noundef align 8 dereferenceable_or_null(8) %2, ptr noundef %9)
  %10 = getelementptr inbounds nuw %class.QMetaType, ptr %2, i32 0, i32 0
  %11 = load ptr, ptr %10, align 8
  ret ptr %11
}

; Function Attrs: mustprogress null_pointer_is_valid sspstrong uwtable
define linkonce_odr void @_ZN14VariantPointerI22_bluetooth_item_data_tE10asQVariantEPS0_(ptr dead_on_unwind noalias writable sret(%class.QVariant) align 8 %0, ptr noundef %1) #0 comdat align 2 {
  %3 = alloca ptr, align 8
  %4 = alloca ptr, align 8
  %5 = alloca ptr, align 8
  store ptr %0, ptr %3, align 8
  store ptr %1, ptr %4, align 8
  call void @llvm.lifetime.start.p0(i64 8, ptr %5) #26
  %6 = load ptr, ptr %4, align 8
  store ptr %6, ptr %5, align 8
  call void @_ZN8QVariant9fromValueIPvEENSt9enable_ifIXsr3stdE23is_copy_constructible_vIT_EES_E4typeERKS3_(ptr dead_on_unwind writable sret(%class.QVariant) align 8 %0, ptr noundef align 8 dereferenceable(8) %5)
  call void @llvm.lifetime.end.p0(i64 8, ptr %5) #26
  ret void
}

; Function Attrs: inlinehint mustprogress null_pointer_is_valid sspstrong uwtable
define linkonce_odr noundef zeroext i1 @_ZNK8QVariant7isValidEv(ptr noundef align 8 dereferenceable_or_null(32) %0) #4 comdat align 2 {
  %2 = alloca ptr, align 8
  %3 = alloca %class.QMetaType, align 8
  store ptr %0, ptr %2, align 8
  %4 = load ptr, ptr %2, align 8
  call void @llvm.lifetime.start.p0(i64 8, ptr %3) #26
  %5 = getelementptr inbounds nuw %class.QVariant, ptr %4, i32 0, i32 0
  %6 = call ptr @_ZNK8QVariant7Private4typeEv(ptr noundef align 8 dereferenceable_or_null(32) %5)
  %7 = getelementptr inbounds nuw %class.QMetaType, ptr %3, i32 0, i32 0
  store ptr %6, ptr %7, align 8
  %8 = call noundef zeroext i1 @_ZNK9QMetaType7isValidEv(ptr noundef align 8 dereferenceable_or_null(8) %3)
  call void @llvm.lifetime.end.p0(i64 8, ptr %3) #26
  ret i1 %8
}

; Function Attrs: mustprogress null_pointer_is_valid sspstrong uwtable
define void @_ZN21BluetoothDeviceDialog12saveItemDataEP16QTableWidgetItemP23_bluetooth_device_tap_tP12_packet_info(ptr noundef %0, ptr noundef %1, ptr noundef %2) #0 align 2 personality ptr @__gxx_personality_v0 {
  %4 = alloca ptr, align 8
  %5 = alloca ptr, align 8
  %6 = alloca ptr, align 8
  %7 = alloca %class.QVariant, align 8
  %8 = alloca ptr, align 8
  %9 = alloca i32, align 4
  %10 = alloca ptr, align 8
  %11 = alloca %class.QVariant, align 8
  store ptr %0, ptr %4, align 8
  store ptr %1, ptr %5, align 8
  store ptr %2, ptr %6, align 8
  call void @llvm.lifetime.start.p0(i64 32, ptr %7) #26
  %12 = load ptr, ptr %4, align 8
  %13 = load ptr, ptr %12, align 8
  %14 = getelementptr inbounds ptr, ptr %13, i64 3
  %15 = load ptr, ptr %14, align 8
  call void %15(ptr dead_on_unwind writable sret(%class.QVariant) align 8 %7, ptr noundef align 8 dereferenceable_or_null(60) %12, i32 noundef 256)
  %16 = invoke noundef zeroext i1 @_ZNK8QVariant7isValidEv(ptr noundef align 8 dereferenceable_or_null(32) %7)
          to label %17 unwind label %19

17:                                               ; preds = %3
  call void @_ZN8QVariantD1Ev(ptr noundef align 8 dereferenceable_or_null(32) %7) #26
  call void @llvm.lifetime.end.p0(i64 32, ptr %7) #26
  br i1 %16, label %18, label %23

18:                                               ; preds = %17
  br label %51

19:                                               ; preds = %3
  %20 = landingpad { ptr, i32 }
          cleanup
  %21 = extractvalue { ptr, i32 } %20, 0
  store ptr %21, ptr %8, align 8
  %22 = extractvalue { ptr, i32 } %20, 1
  store i32 %22, ptr %9, align 4
  call void @_ZN8QVariantD1Ev(ptr noundef align 8 dereferenceable_or_null(32) %7) #26
  call void @llvm.lifetime.end.p0(i64 32, ptr %7) #26
  br label %56

23:                                               ; preds = %17
  call void @llvm.lifetime.start.p0(i64 8, ptr %10) #26
  %24 = call ptr @wmem_file_scope()
  %25 = call noalias ptr @wmem_alloc(ptr noundef %24, i64 noundef 16) #30
  store ptr %25, ptr %10, align 8
  %26 = load ptr, ptr %5, align 8
  %27 = getelementptr inbounds nuw %struct._bluetooth_device_tap_t, ptr %26, i32 0, i32 0
  %28 = load i32, ptr %27, align 8
  %29 = load ptr, ptr %10, align 8
  %30 = getelementptr inbounds nuw %struct._bluetooth_item_data_t, ptr %29, i32 0, i32 0
  store i32 %28, ptr %30, align 4
  %31 = load ptr, ptr %5, align 8
  %32 = getelementptr inbounds nuw %struct._bluetooth_device_tap_t, ptr %31, i32 0, i32 1
  %33 = load i32, ptr %32, align 4
  %34 = load ptr, ptr %10, align 8
  %35 = getelementptr inbounds nuw %struct._bluetooth_item_data_t, ptr %34, i32 0, i32 1
  store i32 %33, ptr %35, align 4
  %36 = load ptr, ptr %10, align 8
  %37 = getelementptr inbounds nuw %struct._bluetooth_item_data_t, ptr %36, i32 0, i32 3
  store i32 -1, ptr %37, align 4
  %38 = load ptr, ptr %6, align 8
  %39 = getelementptr inbounds nuw %struct._packet_info, ptr %38, i32 0, i32 8
  %40 = load ptr, ptr %39, align 8
  %41 = getelementptr inbounds nuw %struct._frame_data, ptr %40, i32 0, i32 0
  %42 = load i32, ptr %41, align 8
  %43 = load ptr, ptr %10, align 8
  %44 = getelementptr inbounds nuw %struct._bluetooth_item_data_t, ptr %43, i32 0, i32 2
  store i32 %42, ptr %44, align 4
  %45 = load ptr, ptr %4, align 8
  call void @llvm.lifetime.start.p0(i64 32, ptr %11) #26
  %46 = load ptr, ptr %10, align 8
  call void @_ZN14VariantPointerI22_bluetooth_item_data_tE10asQVariantEPS0_(ptr dead_on_unwind writable sret(%class.QVariant) align 8 %11, ptr noundef %46)
  %47 = load ptr, ptr %45, align 8
  %48 = getelementptr inbounds ptr, ptr %47, i64 4
  %49 = load ptr, ptr %48, align 8
  invoke void %49(ptr noundef align 8 dereferenceable_or_null(60) %45, i32 noundef 256, ptr noundef align 8 dereferenceable(32) %11)
          to label %50 unwind label %52

50:                                               ; preds = %23
  call void @_ZN8QVariantD1Ev(ptr noundef align 8 dereferenceable_or_null(32) %11) #26
  call void @llvm.lifetime.end.p0(i64 32, ptr %11) #26
  call void @llvm.lifetime.end.p0(i64 8, ptr %10) #26
  br label %51

51:                                               ; preds = %50, %18
  ret void

52:                                               ; preds = %23
  %53 = landingpad { ptr, i32 }
          cleanup
  %54 = extractvalue { ptr, i32 } %53, 0
  store ptr %54, ptr %8, align 8
  %55 = extractvalue { ptr, i32 } %53, 1
  store i32 %55, ptr %9, align 4
  call void @_ZN8QVariantD1Ev(ptr noundef align 8 dereferenceable_or_null(32) %11) #26
  call void @llvm.lifetime.end.p0(i64 32, ptr %11) #26
  call void @llvm.lifetime.end.p0(i64 8, ptr %10) #26
  br label %56

56:                                               ; preds = %52, %19
  %57 = load ptr, ptr %8, align 8
  %58 = load i32, ptr %9, align 4
  %59 = insertvalue { ptr, i32 } poison, ptr %57, 0
  %60 = insertvalue { ptr, i32 } %59, i32 %58, 1
  resume { ptr, i32 } %60
}