; Function Attrs: mustprogress null_pointer_is_valid sspstrong uwtable
define void @_ZN21BluetoothDeviceDialog12saveItemDataEP16QTableWidgetItemP23_bluetooth_device_tap_tP12_packet_info(ptr noundef %0, ptr noundef readonly captures(none) %1, ptr noundef readonly captures(none) %2) local_unnamed_addr #0 align 2 personality ptr @__gxx_personality_v0 {
  %4 = alloca ptr, align 8
  %5 = alloca %class.QMetaType, align 8
  %6 = alloca %class.QVariant, align 8
  %7 = alloca %class.QVariant, align 8
  call void @llvm.lifetime.start.p0(i64 32, ptr nonnull %6) #24
  %8 = load ptr, ptr %0, align 8
  %9 = getelementptr inbounds nuw i8, ptr %8, i64 24
  %10 = load ptr, ptr %9, align 8
  call void %10(ptr dead_on_unwind nonnull writable sret(%class.QVariant) align 8 %6, ptr noundef align 8 dereferenceable_or_null(60) %0, i32 noundef 256)
  call void @llvm.lifetime.start.p0(i64 8, ptr nonnull %5) #24
  %11 = getelementptr inbounds nuw i8, ptr %6, i64 24
  %12 = load i64, ptr %11, align 8
  %13 = and i64 %12, -4
  %14 = inttoptr i64 %13 to ptr
  store ptr %14, ptr %5, align 8
  %15 = invoke noundef zeroext i1 @_ZNK9QMetaType7isValidEv(ptr noundef nonnull align 8 dereferenceable_or_null(8) %5)
          to label %16 unwind label %17

16:                                               ; preds = %3
  call void @llvm.lifetime.end.p0(i64 8, ptr nonnull %5) #24
  call void @_ZN8QVariantD1Ev(ptr noundef nonnull align 8 dereferenceable_or_null(32) %6) #24
  call void @llvm.lifetime.end.p0(i64 32, ptr nonnull %6) #24
  br i1 %15, label %35, label %19

17:                                               ; preds = %3
  %18 = landingpad { ptr, i32 }
          cleanup
  call void @_ZN8QVariantD1Ev(ptr noundef nonnull align 8 dereferenceable_or_null(32) %6) #24
  call void @llvm.lifetime.end.p0(i64 32, ptr nonnull %6) #24
  br label %38

19:                                               ; preds = %16
  %20 = call ptr @wmem_file_scope()
  %21 = call noalias dereferenceable_or_null(16) ptr @wmem_alloc(ptr noundef %20, i64 noundef 16) #28
  %22 = load i32, ptr %1, align 8
  store i32 %22, ptr %21, align 4
  %23 = getelementptr inbounds nuw i8, ptr %1, i64 4
  %24 = load i32, ptr %23, align 4
  %25 = getelementptr inbounds nuw i8, ptr %21, i64 4
  store i32 %24, ptr %25, align 4
  %26 = getelementptr inbounds nuw i8, ptr %21, i64 12
  store i32 -1, ptr %26, align 4
  %27 = getelementptr inbounds nuw i8, ptr %2, i64 80
  %28 = load ptr, ptr %27, align 8
  %29 = load i32, ptr %28, align 8
  %30 = getelementptr inbounds nuw i8, ptr %21, i64 8
  store i32 %29, ptr %30, align 4
  call void @llvm.lifetime.start.p0(i64 32, ptr nonnull %7) #24
  call void @llvm.lifetime.start.p0(i64 8, ptr nonnull %4) #24, !noalias !71
  store ptr %21, ptr %4, align 8, !noalias !71
  call void @_ZN8QVariantC1E9QMetaTypePKv(ptr noundef nonnull align 8 dereferenceable_or_null(32) %7, ptr nonnull @_ZN9QtPrivate25QMetaTypeInterfaceWrapperIPvE8metaTypeE, ptr noundef nonnull align 8 dereferenceable(8) %4)
  call void @llvm.lifetime.end.p0(i64 8, ptr nonnull %4) #24, !noalias !71
  %31 = load ptr, ptr %0, align 8
  %32 = getelementptr inbounds nuw i8, ptr %31, i64 32
  %33 = load ptr, ptr %32, align 8
  invoke void %33(ptr noundef align 8 dereferenceable_or_null(60) %0, i32 noundef 256, ptr noundef nonnull align 8 dereferenceable(32) %7)
          to label %34 unwind label %36

34:                                               ; preds = %19
  call void @_ZN8QVariantD1Ev(ptr noundef nonnull align 8 dereferenceable_or_null(32) %7) #24
  call void @llvm.lifetime.end.p0(i64 32, ptr nonnull %7) #24
  br label %35

35:                                               ; preds = %16, %34
  ret void

36:                                               ; preds = %19
  %37 = landingpad { ptr, i32 }
          cleanup
  call void @_ZN8QVariantD1Ev(ptr noundef nonnull align 8 dereferenceable_or_null(32) %7) #24
  call void @llvm.lifetime.end.p0(i64 32, ptr nonnull %7) #24
  br label %38

38:                                               ; preds = %36, %17
  %.pn = phi { ptr, i32 } [ %37, %36 ], [ %18, %17 ]
  resume { ptr, i32 } %.pn
}